; Function Attrs: nounwind uwtable
define ptr @l_Lean_Compiler_LCNF_Simp_markUsedArg(ptr noundef %0, ptr readnone captures(none) %1, ptr noundef %2, ptr readnone captures(none) %3, ptr readnone captures(none) %4, ptr readnone captures(none) %5, ptr readnone captures(none) %6, ptr readnone captures(none) %7, ptr noundef %8) local_unnamed_addr #0 {
  %10 = ptrtoint ptr %0 to i64
  %11 = and i64 %10, 1
  %.not.i41 = icmp eq i64 %11, 0
  br i1 %.not.i41, label %15, label %12

12:                                               ; preds = %9
  %13 = lshr i64 %10, 1
  %14 = trunc i64 %13 to i32
  br label %lean_obj_tag.exit

15:                                               ; preds = %9
  %16 = getelementptr i8, ptr %0, i64 4
  %.val.i = load i32, ptr %16, align 4
  %17 = lshr i32 %.val.i, 24
  br label %lean_obj_tag.exit

lean_obj_tag.exit:                                ; preds = %12, %15
  %.0.i = phi i32 [ %14, %12 ], [ %17, %15 ]
  switch i32 %.0.i, label %44 [
    i32 0, label %18
    i32 1, label %25
  ]

18:                                               ; preds = %lean_obj_tag.exit
  tail call void @lean_inc_heartbeat() #4
  %19 = tail call noalias ptr @mi_malloc_small(i64 noundef 24) #4
  %20 = icmp eq ptr %19, null
  br i1 %20, label %21, label %lean_alloc_ctor.exit

21:                                               ; preds = %18
  tail call void @lean_internal_panic_out_of_memory() #5
  unreachable

lean_alloc_ctor.exit:                             ; preds = %18
  %22 = getelementptr inbounds nuw i8, ptr %19, i64 4
  store i32 1, ptr %19, align 4, !tbaa !8
  store i32 131096, ptr %22, align 4
  %23 = getelementptr inbounds nuw i8, ptr %19, i64 8
  store ptr inttoptr (i64 1 to ptr), ptr %23, align 8, !tbaa !4
  %24 = getelementptr inbounds nuw i8, ptr %19, i64 16
  store ptr %8, ptr %24, align 8, !tbaa !4
  br label %lean_dec.exit

25:                                               ; preds = %lean_obj_tag.exit
  %26 = getelementptr inbounds nuw i8, ptr %0, i64 8
  %27 = load ptr, ptr %26, align 8, !tbaa !4
  %28 = ptrtoint ptr %27 to i64
  %29 = and i64 %28, 1
  %.not = icmp eq i64 %29, 0
  br i1 %.not, label %30, label %lean_inc.exit34

30:                                               ; preds = %25
  %.val.i42 = load i32, ptr %27, align 4, !tbaa !8
  %31 = icmp sgt i32 %.val.i42, 0
  br i1 %31, label %32, label %34, !prof !11

32:                                               ; preds = %30
  %33 = add nuw i32 %.val.i42, 1
  store i32 %33, ptr %27, align 4, !tbaa !8
  br label %lean_inc.exit34

34:                                               ; preds = %30
  %.not.i43 = icmp eq i32 %.val.i42, 0
  br i1 %.not.i43, label %lean_inc.exit34, label %35

35:                                               ; preds = %34
  tail call void @lean_inc_ref_cold(ptr noundef nonnull %27) #4
  br label %lean_inc.exit34

lean_inc.exit34:                                  ; preds = %35, %34, %32, %25
  br i1 %.not.i41, label %36, label %lean_dec.exit36

36:                                               ; preds = %lean_inc.exit34
  %37 = load i32, ptr %0, align 4, !tbaa !8
  %38 = icmp sgt i32 %37, 1
  br i1 %38, label %39, label %41, !prof !11

39:                                               ; preds = %36
  %40 = add nsw i32 %37, -1
  store i32 %40, ptr %0, align 4, !tbaa !8
  br label %lean_dec.exit36

41:                                               ; preds = %36
  %.not.i = icmp eq i32 %37, 0
  br i1 %.not.i, label %lean_dec.exit36, label %42

42:                                               ; preds = %41
  tail call void @lean_dec_ref_cold(ptr noundef nonnull %0) #4
  br label %lean_dec.exit36

lean_dec.exit36:                                  ; preds = %42, %41, %39, %lean_inc.exit34
  %43 = tail call ptr @l_Lean_Compiler_LCNF_Simp_markUsedFVar(ptr noundef %27, ptr poison, ptr noundef %2, ptr poison, ptr poison, ptr poison, ptr poison, ptr poison, ptr noundef %8)
  br label %lean_dec.exit

44:                                               ; preds = %lean_obj_tag.exit
  %45 = getelementptr inbounds nuw i8, ptr %0, i64 8
  %46 = load ptr, ptr %45, align 8, !tbaa !4
  %47 = ptrtoint ptr %46 to i64
  %48 = and i64 %47, 1
  %.not48 = icmp eq i64 %48, 0
  br i1 %.not48, label %49, label %lean_inc.exit

49:                                               ; preds = %44
  %.val.i44 = load i32, ptr %46, align 4, !tbaa !8
  %50 = icmp sgt i32 %.val.i44, 0
  br i1 %50, label %51, label %53, !prof !11

51:                                               ; preds = %49
  %52 = add nuw i32 %.val.i44, 1
  store i32 %52, ptr %46, align 4, !tbaa !8
  br label %lean_inc.exit

53:                                               ; preds = %49
  %.not.i45 = icmp eq i32 %.val.i44, 0
  br i1 %.not.i45, label %lean_inc.exit, label %54

54:                                               ; preds = %53
  tail call void @lean_inc_ref_cold(ptr noundef nonnull %46) #4
  br label %lean_inc.exit

lean_inc.exit:                                    ; preds = %54, %53, %51, %44
  br i1 %.not.i41, label %55, label %lean_dec.exit35

55:                                               ; preds = %lean_inc.exit
  %56 = load i32, ptr %0, align 4, !tbaa !8
  %57 = icmp sgt i32 %56, 1
  br i1 %57, label %58, label %60, !prof !11

58:                                               ; preds = %55
  %59 = add nsw i32 %56, -1
  store i32 %59, ptr %0, align 4, !tbaa !8
  br label %lean_dec.exit35

60:                                               ; preds = %55
  %.not.i37 = icmp eq i32 %56, 0
  br i1 %.not.i37, label %lean_dec.exit35, label %61

61:                                               ; preds = %60
  tail call void @lean_dec_ref_cold(ptr noundef nonnull %0) #4
  br label %lean_dec.exit35

lean_dec.exit35:                                  ; preds = %61, %60, %58, %lean_inc.exit
  %62 = tail call ptr @l_Lean_Compiler_LCNF_Simp_markUsedType(ptr noundef %46, ptr poison, ptr noundef %2, ptr poison, ptr poison, ptr poison, ptr poison, ptr poison, ptr noundef %8)
  br i1 %.not48, label %63, label %lean_dec.exit

63:                                               ; preds = %lean_dec.exit35
  %64 = load i32, ptr %46, align 4, !tbaa !8
  %65 = icmp sgt i32 %64, 1
  br i1 %65, label %66, label %68, !prof !11

66:                                               ; preds = %63
  %67 = add nsw i32 %64, -1
  store i32 %67, ptr %46, align 4, !tbaa !8
  br label %lean_dec.exit

68:                                               ; preds = %63
  %.not.i39 = icmp eq i32 %64, 0
  br i1 %.not.i39, label %lean_dec.exit, label %69

69:                                               ; preds = %68
  tail call void @lean_dec_ref_cold(ptr noundef nonnull %46) #4
  br label %lean_dec.exit

lean_dec.exit:                                    ; preds = %lean_dec.exit35, %66, %68, %69, %lean_dec.exit36, %lean_alloc_ctor.exit
  %.0 = phi ptr [ %43, %lean_dec.exit36 ], [ %19, %lean_alloc_ctor.exit ], [ %62, %69 ], [ %62, %68 ], [ %62, %66 ], [ %62, %lean_dec.exit35 ]
  ret ptr %.0
}